target datalayout = "e-m:e-p270:32:32-p271:32:32-p272:64:64-i64:64-i128:128-f80:128-n8:16:32:64-S128"
target triple = "x86_64-pc-linux-gnu"

%struct.H5RS_str_t = type { ptr, ptr, i64, i64, i8, i32 }

@H5RS_init_g = global i8 0, align 1
@H5_libterm_g = external global i8, align 1
@.str = private unnamed_addr constant [98 x i8] c"generated/home/dtcxzyw/WorkSpace/Projects/compilers/llvm-opt-benchmark/bench/hdf5/hdf5/src/H5RS.c\00", align 1
@H5E_RS_g = external global i64, align 8
@H5E_CANTALLOC_g = external global i64, align 8
@.str.1 = private unnamed_addr constant [25 x i8] c"memory allocation failed\00", align 1
@H5E_CANTINIT_g = external global i64, align 8
@.str.3 = private unnamed_addr constant [36 x i8] c"can't initialize ref-counted string\00", align 1
@H5E_CANTRESIZE_g = external global i64, align 8
@.str.4 = private unnamed_addr constant [39 x i8] c"can't resize ref-counted string buffer\00", align 1
@__func__.H5RS_acat = private unnamed_addr constant [10 x i8] c"H5RS_acat\00", align 1
@__func__.H5RS__resize_for_append = private unnamed_addr constant [24 x i8] c"H5RS__resize_for_append\00", align 1
@H5_str_buf_blk_free_list = internal global { i8, [3 x i8], i32, i32, [4 x i8], i64, ptr, ptr } { i8 0, [3 x i8] zeroinitializer, i32 0, i32 0, [4 x i8] zeroinitializer, i64 0, ptr @.str.7, ptr null }, align 8

; Function Attrs: nounwind uwtable
define internal i32 @H5RS__resize_for_append(ptr noundef %0, i64 noundef %1) #0 {
  %3 = alloca ptr, align 8
  %4 = alloca i64, align 8
  %5 = alloca i32, align 4
  %6 = alloca i8, align 1
  store ptr %0, ptr %3, align 8, !tbaa !8
  store i64 %1, ptr %4, align 8, !tbaa !14
  call void @llvm.lifetime.start.p0(i64 4, ptr %5) #8
  store i32 0, ptr %5, align 4, !tbaa !19
  call void @llvm.lifetime.start.p0(i64 1, ptr %6) #8
  store i8 0, ptr %6, align 1, !tbaa !10
  %7 = load i8, ptr @H5RS_init_g, align 1, !tbaa !10, !range !12, !noundef !13
  %8 = trunc i8 %7 to i1
  br i1 %8, label %13, label %9

9:                                                ; preds = %2
  %10 = load i8, ptr @H5_libterm_g, align 1, !tbaa !10, !range !12, !noundef !13
  %11 = trunc i8 %10 to i1
  %12 = xor i1 %11, true
  br label %13

13:                                               ; preds = %9, %2
  %14 = phi i1 [ true, %2 ], [ %12, %9 ]
  %15 = xor i1 %14, true
  %16 = xor i1 %15, true
  %17 = zext i1 %16 to i32
  %18 = sext i32 %17 to i64
  %19 = call i64 @llvm.expect.i64(i64 %18, i64 1)
  %20 = icmp ne i64 %19, 0
  br i1 %20, label %21, label %89

21:                                               ; preds = %13
  %22 = load i64, ptr %4, align 8, !tbaa !14
  %23 = load ptr, ptr %3, align 8, !tbaa !8
  %24 = getelementptr inbounds nuw %struct.H5RS_str_t, ptr %23, i32 0, i32 3
  %25 = load i64, ptr %24, align 8, !tbaa !20
  %26 = load ptr, ptr %3, align 8, !tbaa !8
  %27 = getelementptr inbounds nuw %struct.H5RS_str_t, ptr %26, i32 0, i32 2
  %28 = load i64, ptr %27, align 8, !tbaa !26
  %29 = sub i64 %25, %28
  %30 = icmp uge i64 %22, %29
  br i1 %30, label %31, label %87

31:                                               ; preds = %21
  br label %32

32:                                               ; preds = %42, %31
  %33 = load i64, ptr %4, align 8, !tbaa !14
  %34 = load ptr, ptr %3, align 8, !tbaa !8
  %35 = getelementptr inbounds nuw %struct.H5RS_str_t, ptr %34, i32 0, i32 3
  %36 = load i64, ptr %35, align 8, !tbaa !20
  %37 = load ptr, ptr %3, align 8, !tbaa !8
  %38 = getelementptr inbounds nuw %struct.H5RS_str_t, ptr %37, i32 0, i32 2
  %39 = load i64, ptr %38, align 8, !tbaa !26
  %40 = sub i64 %36, %39
  %41 = icmp uge i64 %33, %40
  br i1 %41, label %42, label %47

42:                                               ; preds = %32
  %43 = load ptr, ptr %3, align 8, !tbaa !8
  %44 = getelementptr inbounds nuw %struct.H5RS_str_t, ptr %43, i32 0, i32 3
  %45 = load i64, ptr %44, align 8, !tbaa !20
  %46 = mul i64 %45, 2
  store i64 %46, ptr %44, align 8, !tbaa !20
  br label %32, !llvm.loop !29

47:                                               ; preds = %32
  %48 = load ptr, ptr %3, align 8, !tbaa !8
  %49 = getelementptr inbounds nuw %struct.H5RS_str_t, ptr %48, i32 0, i32 0
  %50 = load ptr, ptr %49, align 8, !tbaa !23
  %51 = load ptr, ptr %3, align 8, !tbaa !8
  %52 = getelementptr inbounds nuw %struct.H5RS_str_t, ptr %51, i32 0, i32 3
  %53 = load i64, ptr %52, align 8, !tbaa !20
  %54 = call ptr @H5FL_blk_realloc(ptr noundef @H5_str_buf_blk_free_list, ptr noundef %50, i64 noundef %53)
  %55 = load ptr, ptr %3, align 8, !tbaa !8
  %56 = getelementptr inbounds nuw %struct.H5RS_str_t, ptr %55, i32 0, i32 0
  store ptr %54, ptr %56, align 8, !tbaa !23
  %57 = icmp eq ptr null, %54
  br i1 %57, label %58, label %77

58:                                               ; preds = %47
  br label %59

59:                                               ; preds = %58
  br label %60

60:                                               ; preds = %59
  br label %61

61:                                               ; preds = %60
  %62 = load i64, ptr @H5E_RS_g, align 8, !tbaa !14
  %63 = load i64, ptr @H5E_CANTALLOC_g, align 8, !tbaa !14
  %64 = call i32 (ptr, ptr, i32, i64, i64, ptr, ...) @H5E_printf_stack(ptr noundef @.str, ptr noundef @__func__.H5RS__resize_for_append, i32 noundef 241, i64 noundef %62, i64 noundef %63, ptr noundef @.str.1)
  br label %65

65:                                               ; preds = %61
  br label %66

66:                                               ; preds = %65
  store i8 1, ptr %6, align 1, !tbaa !10
  %67 = load i8, ptr %6, align 1, !tbaa !10, !range !12, !noundef !13
  %68 = trunc i8 %67 to i1
  %69 = zext i1 %68 to i8
  store i8 %69, ptr %6, align 1, !tbaa !10
  br label %70

70:                                               ; preds = %66
  br label %71

71:                                               ; preds = %70
  br label %72

72:                                               ; preds = %71
  store i32 -1, ptr %5, align 4, !tbaa !19
  br label %88

73:                                               ; No predecessors!
  br label %74

74:                                               ; preds = %73
  br label %75

75:                                               ; preds = %74
  br label %76

76:                                               ; preds = %75
  br label %77

77:                                               ; preds = %76, %47
  %78 = load ptr, ptr %3, align 8, !tbaa !8
  %79 = getelementptr inbounds nuw %struct.H5RS_str_t, ptr %78, i32 0, i32 0
  %80 = load ptr, ptr %79, align 8, !tbaa !23
  %81 = load ptr, ptr %3, align 8, !tbaa !8
  %82 = getelementptr inbounds nuw %struct.H5RS_str_t, ptr %81, i32 0, i32 2
  %83 = load i64, ptr %82, align 8, !tbaa !26
  %84 = getelementptr inbounds nuw i8, ptr %80, i64 %83
  %85 = load ptr, ptr %3, align 8, !tbaa !8
  %86 = getelementptr inbounds nuw %struct.H5RS_str_t, ptr %85, i32 0, i32 1
  store ptr %84, ptr %86, align 8, !tbaa !24
  br label %87

87:                                               ; preds = %77, %21
  br label %88

88:                                               ; preds = %87, %72
  br label %89

89:                                               ; preds = %88, %13
  %90 = load i32, ptr %5, align 4, !tbaa !19
  call void @llvm.lifetime.end.p0(i64 1, ptr %6) #8
  call void @llvm.lifetime.end.p0(i64 4, ptr %5) #8
  ret i32 %90
}

; Function Attrs: nounwind uwtable
define i32 @H5RS_acat(ptr noundef %0, ptr noundef %1) #0 {
  %3 = alloca i32, align 4
  %4 = alloca ptr, align 8
  %5 = alloca ptr, align 8
  %6 = alloca i32, align 4
  %7 = alloca i8, align 1
  %8 = alloca i64, align 8
  %9 = alloca i32, align 4
  store ptr %0, ptr %4, align 8, !tbaa !8
  store ptr %1, ptr %5, align 8, !tbaa !3
  call void @llvm.lifetime.start.p0(i64 4, ptr %6) #8
  store i32 0, ptr %6, align 4, !tbaa !19
  call void @llvm.lifetime.start.p0(i64 1, ptr %7) #8
  store i8 0, ptr %7, align 1, !tbaa !10
  %10 = load i8, ptr @H5RS_init_g, align 1, !tbaa !10, !range !12, !noundef !13
  %11 = trunc i8 %10 to i1
  br i1 %11, label %16, label %12

12:                                               ; preds = %2
  %13 = load i8, ptr @H5_libterm_g, align 1, !tbaa !10, !range !12, !noundef !13
  %14 = trunc i8 %13 to i1
  %15 = xor i1 %14, true
  br label %16

16:                                               ; preds = %12, %2
  %17 = phi i1 [ false, %2 ], [ %15, %12 ]
  %18 = xor i1 %17, true
  %19 = xor i1 %18, true
  %20 = zext i1 %19 to i32
  %21 = sext i32 %20 to i64
  %22 = call i64 @llvm.expect.i64(i64 %21, i64 0)
  %23 = icmp ne i64 %22, 0
  br i1 %23, label %24, label %25

24:                                               ; preds = %16
  store i8 1, ptr @H5RS_init_g, align 1, !tbaa !10
  br label %25

25:                                               ; preds = %24, %16
  %26 = load i8, ptr @H5RS_init_g, align 1, !tbaa !10, !range !12, !noundef !13
  %27 = trunc i8 %26 to i1
  br i1 %27, label %32, label %28

28:                                               ; preds = %25
  %29 = load i8, ptr @H5_libterm_g, align 1, !tbaa !10, !range !12, !noundef !13
  %30 = trunc i8 %29 to i1
  %31 = xor i1 %30, true
  br label %32

32:                                               ; preds = %28, %25
  %33 = phi i1 [ true, %25 ], [ %31, %28 ]
  %34 = xor i1 %33, true
  %35 = xor i1 %34, true
  %36 = zext i1 %35 to i32
  %37 = sext i32 %36 to i64
  %38 = call i64 @llvm.expect.i64(i64 %37, i64 1)
  %39 = icmp ne i64 %38, 0
  br i1 %39, label %40, label %128

40:                                               ; preds = %32
  %41 = load ptr, ptr %5, align 8, !tbaa !3
  %42 = load i8, ptr %41, align 1, !tbaa !25
  %43 = icmp ne i8 %42, 0
  br i1 %43, label %44, label %126

44:                                               ; preds = %40
  call void @llvm.lifetime.start.p0(i64 8, ptr %8) #8
  %45 = load ptr, ptr %5, align 8, !tbaa !3
  %46 = call i64 @strlen(ptr noundef %45) #9
  store i64 %46, ptr %8, align 8, !tbaa !14
  %47 = load ptr, ptr %4, align 8, !tbaa !8
  %48 = call i32 @H5RS__prepare_for_append(ptr noundef %47)
  %49 = icmp slt i32 %48, 0
  br i1 %49, label %50, label %69

50:                                               ; preds = %44
  br label %51

51:                                               ; preds = %50
  br label %52

52:                                               ; preds = %51
  br label %53

53:                                               ; preds = %52
  %54 = load i64, ptr @H5E_RS_g, align 8, !tbaa !14
  %55 = load i64, ptr @H5E_CANTINIT_g, align 8, !tbaa !14
  %56 = call i32 (ptr, ptr, i32, i64, i64, ptr, ...) @H5E_printf_stack(ptr noundef @.str, ptr noundef @__func__.H5RS_acat, i32 noundef 429, i64 noundef %54, i64 noundef %55, ptr noundef @.str.3)
  br label %57

57:                                               ; preds = %53
  br label %58

58:                                               ; preds = %57
  store i8 1, ptr %7, align 1, !tbaa !10
  %59 = load i8, ptr %7, align 1, !tbaa !10, !range !12, !noundef !13
  %60 = trunc i8 %59 to i1
  %61 = zext i1 %60 to i8
  store i8 %61, ptr %7, align 1, !tbaa !10
  br label %62

62:                                               ; preds = %58
  br label %63

63:                                               ; preds = %62
  br label %64

64:                                               ; preds = %63
  store i32 -1, ptr %6, align 4, !tbaa !19
  store i32 10, ptr %9, align 4
  br label %123

65:                                               ; No predecessors!
  br label %66

66:                                               ; preds = %65
  br label %67

67:                                               ; preds = %66
  br label %68

68:                                               ; preds = %67
  br label %69

69:                                               ; preds = %68, %44
  %70 = load ptr, ptr %4, align 8, !tbaa !8
  %71 = getelementptr inbounds nuw %struct.H5RS_str_t, ptr %70, i32 0, i32 2
  %72 = load i64, ptr %71, align 8, !tbaa !26
  %73 = load i64, ptr %8, align 8, !tbaa !14
  %74 = add i64 %72, %73
  %75 = load ptr, ptr %4, align 8, !tbaa !8
  %76 = getelementptr inbounds nuw %struct.H5RS_str_t, ptr %75, i32 0, i32 3
  %77 = load i64, ptr %76, align 8, !tbaa !20
  %78 = icmp uge i64 %74, %77
  br i1 %78, label %79, label %104

79:                                               ; preds = %69
  %80 = load ptr, ptr %4, align 8, !tbaa !8
  %81 = load i64, ptr %8, align 8, !tbaa !14
  %82 = call i32 @H5RS__resize_for_append(ptr noundef %80, i64 noundef %81)
  %83 = icmp slt i32 %82, 0
  br i1 %83, label %84, label %103

84:                                               ; preds = %79
  br label %85

85:                                               ; preds = %84
  br label %86

86:                                               ; preds = %85
  br label %87

87:                                               ; preds = %86
  %88 = load i64, ptr @H5E_RS_g, align 8, !tbaa !14
  %89 = load i64, ptr @H5E_CANTRESIZE_g, align 8, !tbaa !14
  %90 = call i32 (ptr, ptr, i32, i64, i64, ptr, ...) @H5E_printf_stack(ptr noundef @.str, ptr noundef @__func__.H5RS_acat, i32 noundef 434, i64 noundef %88, i64 noundef %89, ptr noundef @.str.4)
  br label %91

91:                                               ; preds = %87
  br label %92

92:                                               ; preds = %91
  store i8 1, ptr %7, align 1, !tbaa !10
  %93 = load i8, ptr %7, align 1, !tbaa !10, !range !12, !noundef !13
  %94 = trunc i8 %93 to i1
  %95 = zext i1 %94 to i8
  store i8 %95, ptr %7, align 1, !tbaa !10
  br label %96

96:                                               ; preds = %92
  br label %97

97:                                               ; preds = %96
  br label %98

98:                                               ; preds = %97
  store i32 -1, ptr %6, align 4, !tbaa !19
  store i32 10, ptr %9, align 4
  br label %123

99:                                               ; No predecessors!
  br label %100

100:                                              ; preds = %99
  br label %101

101:                                              ; preds = %100
  br label %102

102:                                              ; preds = %101
  br label %103

103:                                              ; preds = %102, %79
  br label %104

104:                                              ; preds = %103, %69
  %105 = load ptr, ptr %4, align 8, !tbaa !8
  %106 = getelementptr inbounds nuw %struct.H5RS_str_t, ptr %105, i32 0, i32 1
  %107 = load ptr, ptr %106, align 8, !tbaa !24
  %108 = load ptr, ptr %5, align 8, !tbaa !3
  %109 = load i64, ptr %8, align 8, !tbaa !14
  call void @llvm.memcpy.p0.p0.i64(ptr align 1 %107, ptr align 1 %108, i64 %109, i1 false)
  %110 = load i64, ptr %8, align 8, !tbaa !14
  %111 = load ptr, ptr %4, align 8, !tbaa !8
  %112 = getelementptr inbounds nuw %struct.H5RS_str_t, ptr %111, i32 0, i32 1
  %113 = load ptr, ptr %112, align 8, !tbaa !24
  %114 = getelementptr inbounds nuw i8, ptr %113, i64 %110
  store ptr %114, ptr %112, align 8, !tbaa !24
  %115 = load ptr, ptr %4, align 8, !tbaa !8
  %116 = getelementptr inbounds nuw %struct.H5RS_str_t, ptr %115, i32 0, i32 1
  %117 = load ptr, ptr %116, align 8, !tbaa !24
  store i8 0, ptr %117, align 1, !tbaa !25
  %118 = load i64, ptr %8, align 8, !tbaa !14
  %119 = load ptr, ptr %4, align 8, !tbaa !8
  %120 = getelementptr inbounds nuw %struct.H5RS_str_t, ptr %119, i32 0, i32 2
  %121 = load i64, ptr %120, align 8, !tbaa !26
  %122 = add i64 %121, %118
  store i64 %122, ptr %120, align 8, !tbaa !26
  store i32 0, ptr %9, align 4
  br label %123

123:                                              ; preds = %98, %64, %104
  call void @llvm.lifetime.end.p0(i64 8, ptr %8) #8
  %124 = load i32, ptr %9, align 4
  switch i32 %124, label %130 [
    i32 0, label %125
    i32 10, label %127
  ]

125:                                              ; preds = %123
  br label %126

126:                                              ; preds = %125, %40
  br label %127

127:                                              ; preds = %126, %123
  br label %128

128:                                              ; preds = %127, %32
  %129 = load i32, ptr %6, align 4, !tbaa !19
  store i32 %129, ptr %3, align 4
  store i32 1, ptr %9, align 4
  br label %130

130:                                              ; preds = %128, %123
  call void @llvm.lifetime.end.p0(i64 1, ptr %7) #8
  call void @llvm.lifetime.end.p0(i64 4, ptr %6) #8
  %131 = load i32, ptr %3, align 4
  ret i32 %131
}