; Function Attrs: nounwind uwtable
define range(i32 -1, 1) i32 @H5RS_acat(ptr noundef captures(none) %0, ptr noundef readonly captures(none) %1) local_unnamed_addr #0 {
  %3 = load i8, ptr @H5RS_init_g, align 1, !tbaa !3, !range !7, !noundef !8
  %4 = trunc nuw i8 %3 to i1
  %5 = load i8, ptr @H5_libterm_g, align 1, !range !7
  %6 = trunc nuw i8 %5 to i1
  %7 = select i1 %4, i1 true, i1 %6
  br i1 %7, label %8, label %.thread, !prof !9

.thread:                                          ; preds = %2
  store i8 1, ptr @H5RS_init_g, align 1, !tbaa !3
  br label %11

8:                                                ; preds = %2
  %9 = xor i1 %6, true
  %10 = select i1 %4, i1 true, i1 %9
  br i1 %10, label %11, label %57, !prof !10

11:                                               ; preds = %.thread, %8
  %12 = load i8, ptr %1, align 1, !tbaa !22
  %.not = icmp eq i8 %12, 0
  br i1 %.not, label %57, label %13

13:                                               ; preds = %11
  %14 = tail call i64 @strlen(ptr noundef nonnull dereferenceable(1) %1) #12
  %15 = tail call fastcc i32 @H5RS__prepare_for_append(ptr noundef %0)
  %16 = icmp slt i32 %15, 0
  br i1 %16, label %17, label %21

17:                                               ; preds = %13
  %18 = load i64, ptr @H5E_RS_g, align 8, !tbaa !11
  %19 = load i64, ptr @H5E_CANTINIT_g, align 8, !tbaa !11
  %20 = tail call i32 (ptr, ptr, i32, i64, i64, ptr, ...) @H5E_printf_stack(ptr noundef nonnull @.str, ptr noundef nonnull @__func__.H5RS_acat, i32 noundef 429, i64 noundef %18, i64 noundef %19, ptr noundef nonnull @.str.3) #11
  br label %57

21:                                               ; preds = %13
  %22 = getelementptr inbounds nuw i8, ptr %0, i64 16
  %23 = load i64, ptr %22, align 8, !tbaa !23
  %24 = add i64 %23, %14
  %25 = getelementptr inbounds nuw i8, ptr %0, i64 24
  %26 = load i64, ptr %25, align 8, !tbaa !15
  %.not22 = icmp ult i64 %24, %26
  br i1 %.not22, label %H5RS__resize_for_append.exit.thread, label %27

27:                                               ; preds = %21
  %28 = load i8, ptr @H5RS_init_g, align 1, !tbaa !3, !range !7, !noundef !8
  %29 = trunc nuw i8 %28 to i1
  %30 = load i8, ptr @H5_libterm_g, align 1, !range !7
  %31 = trunc nuw i8 %30 to i1
  %not. = xor i1 %29, true
  %.not24 = select i1 %not., i1 %31, i1 false
  %32 = sub i64 %26, %23
  %.not.i = icmp ult i64 %14, %32
  %or.cond = select i1 %.not24, i1 true, i1 %.not.i
  br i1 %or.cond, label %H5RS__resize_for_append.exit.thread, label %.lr.ph.i, !prof !29

.lr.ph.i:                                         ; preds = %27, %.lr.ph.i
  %33 = phi i64 [ %34, %.lr.ph.i ], [ %26, %27 ]
  %34 = shl i64 %33, 1
  %35 = sub i64 %34, %23
  %.not15.i = icmp ult i64 %14, %35
  br i1 %.not15.i, label %36, label %.lr.ph.i, !llvm.loop !27

36:                                               ; preds = %.lr.ph.i
  store i64 %34, ptr %25, align 8, !tbaa !15
  %37 = load ptr, ptr %0, align 8, !tbaa !20
  %38 = tail call ptr @H5FL_blk_realloc(ptr noundef nonnull @H5_str_buf_blk_free_list, ptr noundef %37, i64 noundef %34) #11
  store ptr %38, ptr %0, align 8, !tbaa !20
  %39 = icmp eq ptr %38, null
  br i1 %39, label %44, label %40

40:                                               ; preds = %36
  %41 = load i64, ptr %22, align 8, !tbaa !23
  %42 = getelementptr inbounds nuw i8, ptr %38, i64 %41
  %43 = getelementptr inbounds nuw i8, ptr %0, i64 8
  store ptr %42, ptr %43, align 8, !tbaa !21
  br label %H5RS__resize_for_append.exit.thread

44:                                               ; preds = %36
  %45 = load i64, ptr @H5E_RS_g, align 8, !tbaa !11
  %46 = load i64, ptr @H5E_CANTALLOC_g, align 8, !tbaa !11
  %47 = tail call i32 (ptr, ptr, i32, i64, i64, ptr, ...) @H5E_printf_stack(ptr noundef nonnull @.str, ptr noundef nonnull @__func__.H5RS__resize_for_append, i32 noundef 241, i64 noundef %45, i64 noundef %46, ptr noundef nonnull @.str.1) #11
  %48 = load i64, ptr @H5E_RS_g, align 8, !tbaa !11
  %49 = load i64, ptr @H5E_CANTRESIZE_g, align 8, !tbaa !11
  %50 = tail call i32 (ptr, ptr, i32, i64, i64, ptr, ...) @H5E_printf_stack(ptr noundef nonnull @.str, ptr noundef nonnull @__func__.H5RS_acat, i32 noundef 434, i64 noundef %48, i64 noundef %49, ptr noundef nonnull @.str.4) #11
  br label %57

H5RS__resize_for_append.exit.thread:              ; preds = %27, %40, %21
  %51 = getelementptr inbounds nuw i8, ptr %0, i64 8
  %52 = load ptr, ptr %51, align 8, !tbaa !21
  tail call void @llvm.memcpy.p0.p0.i64(ptr align 1 %52, ptr nonnull align 1 %1, i64 %14, i1 false)
  %53 = load ptr, ptr %51, align 8, !tbaa !21
  %54 = getelementptr inbounds nuw i8, ptr %53, i64 %14
  store ptr %54, ptr %51, align 8, !tbaa !21
  store i8 0, ptr %54, align 1, !tbaa !22
  %55 = load i64, ptr %22, align 8, !tbaa !23
  %56 = add i64 %55, %14
  store i64 %56, ptr %22, align 8, !tbaa !23
  br label %57

57:                                               ; preds = %17, %44, %H5RS__resize_for_append.exit.thread, %8, %11
  %.020 = phi i32 [ 0, %11 ], [ 0, %8 ], [ -1, %17 ], [ -1, %44 ], [ 0, %H5RS__resize_for_append.exit.thread ]
  ret i32 %.020
}